target datalayout = "e-m:e-p270:32:32-p271:32:32-p272:64:64-i64:64-i128:128-f80:128-n8:16:32:64-S128"
target triple = "x86_64-pc-linux-gnu"

%struct.SDL_Mouse = type { ptr, ptr, ptr, ptr, ptr, ptr, ptr, ptr, ptr, ptr, ptr, ptr, ptr, ptr, i8, float, float, ptr, float, float, float, float, float, float, float, float, double, double, i8, i8, i8, i8, i8, i8, i8, i8, i64, i8, float, i8, float, i8, i32, i32, i8, i8, i8, i8, i8, i8, i8, i8, i8, ptr, i32, ptr, ptr, ptr, ptr, i8, ptr }

@.str = private unnamed_addr constant [28 x i8] c"SDL_MOUSE_DOUBLE_CLICK_TIME\00", align 1
@.str.1 = private unnamed_addr constant [30 x i8] c"SDL_MOUSE_DOUBLE_CLICK_RADIUS\00", align 1
@.str.2 = private unnamed_addr constant [29 x i8] c"SDL_MOUSE_NORMAL_SPEED_SCALE\00", align 1
@.str.3 = private unnamed_addr constant [31 x i8] c"SDL_MOUSE_RELATIVE_SPEED_SCALE\00", align 1
@.str.4 = private unnamed_addr constant [32 x i8] c"SDL_MOUSE_RELATIVE_SYSTEM_SCALE\00", align 1
@.str.5 = private unnamed_addr constant [31 x i8] c"SDL_MOUSE_RELATIVE_MODE_CENTER\00", align 1
@.str.6 = private unnamed_addr constant [37 x i8] c"SDL_MOUSE_EMULATE_WARP_WITH_RELATIVE\00", align 1
@.str.7 = private unnamed_addr constant [23 x i8] c"SDL_TOUCH_MOUSE_EVENTS\00", align 1
@.str.8 = private unnamed_addr constant [23 x i8] c"SDL_MOUSE_TOUCH_EVENTS\00", align 1
@.str.9 = private unnamed_addr constant [21 x i8] c"SDL_PEN_MOUSE_EVENTS\00", align 1
@.str.10 = private unnamed_addr constant [21 x i8] c"SDL_PEN_TOUCH_EVENTS\00", align 1
@.str.11 = private unnamed_addr constant [23 x i8] c"SDL_MOUSE_AUTO_CAPTURE\00", align 1
@.str.12 = private unnamed_addr constant [31 x i8] c"SDL_MOUSE_RELATIVE_WARP_MOTION\00", align 1
@.str.13 = private unnamed_addr constant [34 x i8] c"SDL_MOUSE_RELATIVE_CURSOR_VISIBLE\00", align 1
@.str.14 = private unnamed_addr constant [23 x i8] c"SDL_MOUSE_INTEGER_MODE\00", align 1
@SDL_mouse = internal global %struct.SDL_Mouse zeroinitializer, align 8

; Function Attrs: nounwind uwtable
define hidden ptr @SDL_GetMouse() #0 {
  ret ptr @SDL_mouse
}

; Function Attrs: nounwind uwtable
define hidden zeroext i1 @SDL_PreInitMouse() #0 {
  %1 = alloca ptr, align 8
  call void @llvm.lifetime.start.p0(i64 8, ptr %1) #7
  %2 = call ptr @SDL_GetMouse()
  store ptr %2, ptr %1, align 8
  %3 = load ptr, ptr %1, align 8
  call void @llvm.memset.p0.i64(ptr align 8 %3, i8 0, i64 304, i1 false)
  %4 = load ptr, ptr %1, align 8
  %5 = call zeroext i1 @SDL_AddHintCallback_REAL(ptr noundef @.str, ptr noundef @SDL_MouseDoubleClickTimeChanged, ptr noundef %4)
  %6 = load ptr, ptr %1, align 8
  %7 = call zeroext i1 @SDL_AddHintCallback_REAL(ptr noundef @.str.1, ptr noundef @SDL_MouseDoubleClickRadiusChanged, ptr noundef %6)
  %8 = load ptr, ptr %1, align 8
  %9 = call zeroext i1 @SDL_AddHintCallback_REAL(ptr noundef @.str.2, ptr noundef @SDL_MouseNormalSpeedScaleChanged, ptr noundef %8)
  %10 = load ptr, ptr %1, align 8
  %11 = call zeroext i1 @SDL_AddHintCallback_REAL(ptr noundef @.str.3, ptr noundef @SDL_MouseRelativeSpeedScaleChanged, ptr noundef %10)
  %12 = load ptr, ptr %1, align 8
  %13 = call zeroext i1 @SDL_AddHintCallback_REAL(ptr noundef @.str.4, ptr noundef @SDL_MouseRelativeSystemScaleChanged, ptr noundef %12)
  %14 = load ptr, ptr %1, align 8
  %15 = call zeroext i1 @SDL_AddHintCallback_REAL(ptr noundef @.str.5, ptr noundef @SDL_MouseRelativeModeCenterChanged, ptr noundef %14)
  %16 = load ptr, ptr %1, align 8
  %17 = call zeroext i1 @SDL_AddHintCallback_REAL(ptr noundef @.str.6, ptr noundef @SDL_MouseWarpEmulationChanged, ptr noundef %16)
  %18 = load ptr, ptr %1, align 8
  %19 = call zeroext i1 @SDL_AddHintCallback_REAL(ptr noundef @.str.7, ptr noundef @SDL_TouchMouseEventsChanged, ptr noundef %18)
  %20 = load ptr, ptr %1, align 8
  %21 = call zeroext i1 @SDL_AddHintCallback_REAL(ptr noundef @.str.8, ptr noundef @SDL_MouseTouchEventsChanged, ptr noundef %20)
  %22 = load ptr, ptr %1, align 8
  %23 = call zeroext i1 @SDL_AddHintCallback_REAL(ptr noundef @.str.9, ptr noundef @SDL_PenMouseEventsChanged, ptr noundef %22)
  %24 = load ptr, ptr %1, align 8
  %25 = call zeroext i1 @SDL_AddHintCallback_REAL(ptr noundef @.str.10, ptr noundef @SDL_PenTouchEventsChanged, ptr noundef %24)
  %26 = load ptr, ptr %1, align 8
  %27 = call zeroext i1 @SDL_AddHintCallback_REAL(ptr noundef @.str.11, ptr noundef @SDL_MouseAutoCaptureChanged, ptr noundef %26)
  %28 = load ptr, ptr %1, align 8
  %29 = call zeroext i1 @SDL_AddHintCallback_REAL(ptr noundef @.str.12, ptr noundef @SDL_MouseRelativeWarpMotionChanged, ptr noundef %28)
  %30 = load ptr, ptr %1, align 8
  %31 = call zeroext i1 @SDL_AddHintCallback_REAL(ptr noundef @.str.13, ptr noundef @SDL_MouseRelativeCursorVisibleChanged, ptr noundef %30)
  %32 = load ptr, ptr %1, align 8
  %33 = call zeroext i1 @SDL_AddHintCallback_REAL(ptr noundef @.str.14, ptr noundef @SDL_MouseIntegerModeChanged, ptr noundef %32)
  %34 = load ptr, ptr %1, align 8
  %35 = getelementptr inbounds nuw %struct.SDL_Mouse, ptr %34, i32 0, i32 48
  store i8 0, ptr %35, align 8
  %36 = load ptr, ptr %1, align 8
  %37 = getelementptr inbounds nuw %struct.SDL_Mouse, ptr %36, i32 0, i32 59
  store i8 1, ptr %37, align 8
  call void @llvm.lifetime.end.p0(i64 8, ptr %1) #7
  ret i1 true
}