; Function Attrs: nounwind uwtable
define hidden noundef zeroext i1 @SDL_PreInitMouse() local_unnamed_addr #0 {
  tail call void @llvm.memset.p0.i64(ptr noundef nonnull align 8 dereferenceable(304) @SDL_mouse, i8 0, i64 304, i1 false)
  %1 = tail call zeroext i1 @SDL_AddHintCallback_REAL(ptr noundef nonnull @.str, ptr noundef nonnull @SDL_MouseDoubleClickTimeChanged, ptr noundef nonnull @SDL_mouse) #13
  %2 = tail call zeroext i1 @SDL_AddHintCallback_REAL(ptr noundef nonnull @.str.1, ptr noundef nonnull @SDL_MouseDoubleClickRadiusChanged, ptr noundef nonnull @SDL_mouse) #13
  %3 = tail call zeroext i1 @SDL_AddHintCallback_REAL(ptr noundef nonnull @.str.2, ptr noundef nonnull @SDL_MouseNormalSpeedScaleChanged, ptr noundef nonnull @SDL_mouse) #13
  %4 = tail call zeroext i1 @SDL_AddHintCallback_REAL(ptr noundef nonnull @.str.3, ptr noundef nonnull @SDL_MouseRelativeSpeedScaleChanged, ptr noundef nonnull @SDL_mouse) #13
  %5 = tail call zeroext i1 @SDL_AddHintCallback_REAL(ptr noundef nonnull @.str.4, ptr noundef nonnull @SDL_MouseRelativeSystemScaleChanged, ptr noundef nonnull @SDL_mouse) #13
  %6 = tail call zeroext i1 @SDL_AddHintCallback_REAL(ptr noundef nonnull @.str.5, ptr noundef nonnull @SDL_MouseRelativeModeCenterChanged, ptr noundef nonnull @SDL_mouse) #13
  %7 = tail call zeroext i1 @SDL_AddHintCallback_REAL(ptr noundef nonnull @.str.6, ptr noundef nonnull @SDL_MouseWarpEmulationChanged, ptr noundef nonnull @SDL_mouse) #13
  %8 = tail call zeroext i1 @SDL_AddHintCallback_REAL(ptr noundef nonnull @.str.7, ptr noundef nonnull @SDL_TouchMouseEventsChanged, ptr noundef nonnull @SDL_mouse) #13
  %9 = tail call zeroext i1 @SDL_AddHintCallback_REAL(ptr noundef nonnull @.str.8, ptr noundef nonnull @SDL_MouseTouchEventsChanged, ptr noundef nonnull @SDL_mouse) #13
  %10 = tail call zeroext i1 @SDL_AddHintCallback_REAL(ptr noundef nonnull @.str.9, ptr noundef nonnull @SDL_PenMouseEventsChanged, ptr noundef nonnull @SDL_mouse) #13
  %11 = tail call zeroext i1 @SDL_AddHintCallback_REAL(ptr noundef nonnull @.str.10, ptr noundef nonnull @SDL_PenTouchEventsChanged, ptr noundef nonnull @SDL_mouse) #13
  %12 = tail call zeroext i1 @SDL_AddHintCallback_REAL(ptr noundef nonnull @.str.11, ptr noundef nonnull @SDL_MouseAutoCaptureChanged, ptr noundef nonnull @SDL_mouse) #13
  %13 = tail call zeroext i1 @SDL_AddHintCallback_REAL(ptr noundef nonnull @.str.12, ptr noundef nonnull @SDL_MouseRelativeWarpMotionChanged, ptr noundef nonnull @SDL_mouse) #13
  %14 = tail call zeroext i1 @SDL_AddHintCallback_REAL(ptr noundef nonnull @.str.13, ptr noundef nonnull @SDL_MouseRelativeCursorVisibleChanged, ptr noundef nonnull @SDL_mouse) #13
  %15 = tail call zeroext i1 @SDL_AddHintCallback_REAL(ptr noundef nonnull @.str.14, ptr noundef nonnull @SDL_MouseIntegerModeChanged, ptr noundef nonnull @SDL_mouse) #13
  store i8 0, ptr getelementptr inbounds nuw (i8, ptr @SDL_mouse, i64 232), align 8
  store i8 1, ptr getelementptr inbounds nuw (i8, ptr @SDL_mouse, i64 288), align 8
  ret i1 true
}